target datalayout = "e-m:e-p270:32:32-p271:32:32-p272:64:64-i64:64-i128:128-f80:128-n8:16:32:64-S128"
target triple = "x86_64-pc-linux-gnu"

@.str = private unnamed_addr constant [39 x i8] c"../openssl/test/ml_kem_internal_test.c\00", align 1
@.str.1 = private unnamed_addr constant [61 x i8] c"RAND_set_DRBG_type(NULL, \22TEST-RAND\22, \22fips=no\22, NULL, NULL)\00", align 1
@.str.2 = private unnamed_addr constant [10 x i8] c"TEST-RAND\00", align 1
@.str.3 = private unnamed_addr constant [8 x i8] c"fips=no\00", align 1
@.str.4 = private unnamed_addr constant [12 x i8] c"sanity_test\00", align 1

; Function Attrs: nounwind uwtable
define dso_local i32 @setup_tests() #0 {
  %1 = alloca i32, align 4
  %2 = call i32 @RAND_set_DRBG_type(ptr noundef null, ptr noundef @.str.2, ptr noundef @.str.3, ptr noundef null, ptr noundef null)
  %3 = icmp ne i32 %2, 0
  %4 = zext i1 %3 to i32
  %5 = call i32 @test_true(ptr noundef @.str, i32 noundef 263, ptr noundef @.str.1, i32 noundef %4)
  %6 = icmp ne i32 %5, 0
  br i1 %6, label %8, label %7

7:                                                ; preds = %0
  store i32 0, ptr %1, align 4
  br label %9

8:                                                ; preds = %0
  call void @add_test(ptr noundef @.str.4, ptr noundef @sanity_test)
  store i32 1, ptr %1, align 4
  br label %9

9:                                                ; preds = %8, %7
  %10 = load i32, ptr %1, align 4
  ret i32 %10
}