; Function Attrs: nounwind uwtable
define dso_local range(i32 0, 2) i32 @setup_tests() local_unnamed_addr #0 {
  %1 = tail call i32 @RAND_set_DRBG_type(ptr noundef null, ptr noundef nonnull @.str.2, ptr noundef nonnull @.str.3, ptr noundef null, ptr noundef null) #5
  %2 = icmp ne i32 %1, 0
  %3 = zext i1 %2 to i32
  %4 = tail call i32 @test_true(ptr noundef nonnull @.str, i32 noundef 263, ptr noundef nonnull @.str.1, i32 noundef %3) #5
  %.not = icmp eq i32 %4, 0
  br i1 %.not, label %6, label %5

5:                                                ; preds = %0
  tail call void @add_test(ptr noundef nonnull @.str.4, ptr noundef nonnull @sanity_test) #5
  br label %6

6:                                                ; preds = %0, %5
  %.0 = phi i32 [ 1, %5 ], [ 0, %0 ]
  ret i32 %.0
}